(dp1
(I-1
I0
I3
tp2
(lp3
F0.0625
aF0.9375
aF0.125
aF0.9375
aF0.125
aF1
aF0.0625
aF1
aF0.0625
aF0.9375
aF0.125
aF0.9375
aF0.125
aF1
aF0.0625
aF1
aF0.0625
aF0.9375
aF0.125
aF0.9375
aF0.125
aF1
aF0.0625
aF1
aF0.0625
aF0.9375
aF0.125
aF0.9375
aF0.125
aF1
aF0.0625
aF1
aF0.0625
aF0.9375
aF0.125
aF0.9375
aF0.125
aF1
aF0.0625
aF1
aF0.0625
aF0.9375
aF0.125
aF0.9375
aF0.125
aF1
aF0.0625
aF1
as(I-1
I2
I0
tp4
(lp5
F0.4375
aF0.9375
aF0.5
aF0.9375
aF0.5
aF1
aF0.4375
aF1
aF0.4375
aF0.9375
aF0.5
aF0.9375
aF0.5
aF1
aF0.4375
aF1
aF0.4375
aF0.9375
aF0.5
aF0.9375
aF0.5
aF1
aF0.4375
aF1
aF0.4375
aF0.9375
aF0.5
aF0.9375
aF0.5
aF1
aF0.4375
aF1
aF0.4375
aF0.9375
aF0.5
aF0.9375
aF0.5
aF1
aF0.4375
aF1
aF0.4375
aF0.9375
aF0.5
aF0.9375
aF0.5
aF1
aF0.4375
aF1
as(I-3
I0
I0
tp6
g3
s(I-2
I2
I3
tp7
g5
s(I-3
I3
I2
tp8
g5
s(I0
I1
I2
tp9
g3
s(I-3
I0
I1
tp10
g3
s(I0
I1
I3
tp11
g5
s(I-3
I3
I3
tp12
g5
s(I-1
I3
I0
tp13
g5
s(I-2
I1
I3
tp14
g5
s(I-2
I3
I1
tp15
(lp16
F0.25
aF0.9375
aF0.3125
aF0.9375
aF0.3125
aF1
aF0.25
aF1
aF0.25
aF0.9375
aF0.3125
aF0.9375
aF0.3125
aF1
aF0.25
aF1
aF0.25
aF0.9375
aF0.3125
aF0.9375
aF0.3125
aF1
aF0.25
aF1
aF0.25
aF0.9375
aF0.3125
aF0.9375
aF0.3125
aF1
aF0.25
aF1
aF0.25
aF0.9375
aF0.3125
aF0.9375
aF0.3125
aF1
aF0.25
aF1
aF0.25
aF0.9375
aF0.3125
aF0.9375
aF0.3125
aF1
aF0.25
aF1
as(I0
I2
I1
tp17
g3
s(I-2
I3
I2
tp18
g16
s(I0
I2
I0
tp19
g3
s(I-2
I3
I3
tp20
g5
s(I0
I2
I3
tp21
g5
s(I-1
I3
I2
tp22
g16
s(I0
I2
I2
tp23
g3
s(I-3
I3
I1
tp24
g5
s(I0
I3
I2
tp25
g5
s(I-3
I2
I0
tp26
g5
s(I-2
I0
I0
tp27
g3
s(I-1
I3
I3
tp28
g5
s(I-1
I4
I2
tp29
g5
s(I-3
I2
I1
tp30
g5
s(I0
I0
I3
tp31
g3
s(I-2
I0
I3
tp32
g3
s(I-1
I1
I0
tp33
g5
s(I-3
I2
I2
tp34
g5
s(I0
I0
I2
tp35
g3
s(I0
I3
I0
tp36
g5
s(I-3
I2
I3
tp37
g5
s(I-2
I4
I1
tp38
g5
s(I0
I3
I1
tp39
g5
s(I0
I0
I0
tp40
g3
s(I-1
I4
I1
tp41
g5
s(I-1
I2
I3
tp42
g5
s(I-1
I0
I0
tp43
g3
s(I-1
I1
I3
tp44
g5
s(I-3
I3
I0
tp45
g5
s(I-3
I1
I0
tp46
g5
s(I-2
I1
I0
tp47
g5
s(I-2
I4
I2
tp48
g5
s(I-3
I1
I3
tp49
g5
s(I0
I3
I3
tp50
g5
s(I-3
I1
I2
tp51
g5
s(I-1
I3
I1
tp52
g16
s(I-2
I3
I0
tp53
g5
s(I-3
I1
I1
tp54
g5
s(I-3
I0
I2
tp55
g3
s(I0
I1
I0
tp56
g3
s(I-2
I2
I0
tp57
g5
s(I-3
I0
I3
tp58
g3
s.