(dp1
(I3
I1
I-3
tp2
(lp3
F0.375
aF0.5
aF0.4375
aF0.5
aF0.4375
aF0.5625
aF0.375
aF0.5625
aF0.375
aF0.5
aF0.4375
aF0.5
aF0.4375
aF0.5625
aF0.375
aF0.5625
aF0.375
aF0.5
aF0.4375
aF0.5
aF0.4375
aF0.5625
aF0.375
aF0.5625
aF0.375
aF0.5
aF0.4375
aF0.5
aF0.4375
aF0.5625
aF0.375
aF0.5625
aF0.375
aF0.5
aF0.4375
aF0.5
aF0.4375
aF0.5625
aF0.375
aF0.5625
aF0.375
aF0.5
aF0.4375
aF0.5
aF0.4375
aF0.5625
aF0.375
aF0.5625
as(I-13
I0
I64
tp4
(lp5
F0.375
aF0.5625
aF0.4375
aF0.5625
aF0.4375
aF0.625
aF0.375
aF0.625
aF0.5
aF0.5
aF0.5625
aF0.5
aF0.5625
aF0.5625
aF0.5
aF0.5625
aF0.5
aF0.5
aF0.5625
aF0.5
aF0.5625
aF0.5625
aF0.5
aF0.5625
aF0.5
aF0.5
aF0.5625
aF0.5
aF0.5625
aF0.5625
aF0.5
aF0.5625
aF0.5
aF0.5
aF0.5625
aF0.5
aF0.5625
aF0.5625
aF0.5
aF0.5625
aF0.5
aF0.5
aF0.5625
aF0.5
aF0.5625
aF0.5625
aF0.5
aF0.5625
as(I4
I-5
I11
tp6
g3
s(I-19
I1
I97
tp7
g5
s(I17
I-1
I-2
tp8
g5
s(I-12
I-2
I63
tp9
g3
s(I-78
I-4
I42
tp10
g3
s(I-75
I-4
I42
tp11
g3
s(I-60
I-5
I84
tp12
g5
s(I2
I1
I-2
tp13
g3
s(I-38
I5
I37
tp14
g5
s(I2
I2
I-2
tp15
g5
s(I-12
I-1
I63
tp16
g5
s(I-19
I0
I97
tp17
g3
s(I-77
I-3
I42
tp18
g5
s(I-37
I4
I36
tp19
g3
s(I-47
I-2
I79
tp20
(lp21
F0.4375
aF0.9375
aF0.5
aF0.9375
aF0.5
aF1
aF0.4375
aF1
aF0.4375
aF0.9375
aF0.5
aF0.9375
aF0.5
aF1
aF0.4375
aF1
aF0.4375
aF0.9375
aF0.5
aF0.9375
aF0.5
aF1
aF0.4375
aF1
aF0.4375
aF0.9375
aF0.5
aF0.9375
aF0.5
aF1
aF0.4375
aF1
aF0.4375
aF0.9375
aF0.5
aF0.9375
aF0.5
aF1
aF0.4375
aF1
aF0.4375
aF0.9375
aF0.5
aF0.9375
aF0.5
aF1
aF0.4375
aF1
as(I-77
I-4
I42
tp22
g3
s(I-38
I4
I37
tp23
g3
s(I-12
I-2
I62
tp24
g3
s(I-62
I-5
I86
tp25
g5
s(I5
I-4
I10
tp26
g5
s(I1
I1
I-1
tp27
g5
s(I3
I-5
I12
tp28
g3
s(I16
I-2
I-1
tp29
g3
s(I-63
I-4
I87
tp30
g5
s(I-12
I-1
I62
tp31
g5
s(I-76
I-4
I42
tp32
g3
s(I27
I-2
I84
tp33
g5
s(I16
I-1
I-1
tp34
g5
s(I-38
I4
I38
tp35
g3
s(I14
I-2
I1
tp36
g5
s(I-37
I5
I35
tp37
g5
s(I14
I-3
I1
tp38
g3
s(I-20
I0
I95
tp39
g3
s(I-76
I-3
I42
tp40
g5
s(I-19
I0
I98
tp41
g3
s(I30
I-2
I84
tp42
g5
s(I-37
I4
I35
tp43
g3
s(I-19
I1
I98
tp44
g5
s(I29
I-3
I84
tp45
g3
s(I-61
I-5
I85
tp46
g5
s(I-48
I-2
I79
tp47
g21
s(I5
I-5
I10
tp48
g3
s(I3
I2
I-3
tp49
g5
s(I-48
I-2
I78
tp50
g21
s(I17
I-2
I-2
tp51
g3
s(I6
I-4
I9
tp52
g5
s(I0
I0
I0
tp53
g3
s(I4
I-4
I11
tp54
g5
s(I-20
I1
I95
tp55
g5
s(I15
I-2
I0
tp56
g5
s(I-78
I-3
I42
tp57
g5
s(I-61
I-6
I85
tp58
g3
s(I-62
I-6
I86
tp59
g3
s(I6
I-5
I9
tp60
g3
s(I3
I-4
I12
tp61
g5
s(I-13
I-1
I65
tp62
g5
s(I28
I-2
I84
tp63
g5
s(I-20
I1
I96
tp64
g5
s(I-75
I-3
I42
tp65
g5
s(I-47
I-2
I78
tp66
g21
s(I-63
I-5
I87
tp67
g3
s(I-37
I5
I36
tp68
g5
s(I29
I-2
I84
tp69
g5
s(I1
I0
I-1
tp70
g3
s(I15
I-3
I0
tp71
g3
s(I-60
I-6
I84
tp72
g3
s(I27
I-3
I84
tp73
g3
s(I-13
I-1
I64
tp74
g3
s(I28
I-3
I84
tp75
g3
s(I30
I-3
I84
tp76
g3
s(I0
I1
I0
tp77
g5
s(I-13
I-2
I65
tp78
g3
s(I-38
I5
I38
tp79
g5
s(I-20
I0
I96
tp80
g3
s.