(dp1
(I3
I0
I-1
tp2
(lp3
F0.4375
aF0.9375
aF0.5
aF0.9375
aF0.5
aF1
aF0.4375
aF1
aF0.4375
aF0.9375
aF0.5
aF0.9375
aF0.5
aF1
aF0.4375
aF1
aF0.4375
aF0.9375
aF0.5
aF0.9375
aF0.5
aF1
aF0.4375
aF1
aF0.4375
aF0.9375
aF0.5
aF0.9375
aF0.5
aF1
aF0.4375
aF1
aF0.4375
aF0.9375
aF0.5
aF0.9375
aF0.5
aF1
aF0.4375
aF1
aF0.4375
aF0.9375
aF0.5
aF0.9375
aF0.5
aF1
aF0.4375
aF1
as(I1
I0
I0
tp4
g3
s(I2
I2
I-1
tp5
g3
s(I1
I1
I-4
tp6
g3
s(I3
I0
I-2
tp7
g3
s(I1
I2
I-1
tp8
g3
s(I2
I2
I-3
tp9
g3
s(I2
I1
I-4
tp10
g3
s(I1
I0
I-4
tp11
g3
s(I2
I2
I-4
tp12
g3
s(I0
I0
I-1
tp13
g3
s(I0
I2
I0
tp14
g3
s(I1
I2
I-4
tp15
g3
s(I0
I0
I-2
tp16
g3
s(I1
I2
I-3
tp17
g3
s(I3
I2
I-2
tp18
g3
s(I0
I2
I-1
tp19
g3
s(I0
I0
I-3
tp20
g3
s(I3
I1
I-1
tp21
g3
s(I1
I2
I0
tp22
g3
s(I1
I2
I-2
tp23
g3
s(I2
I0
I0
tp24
g3
s(I0
I0
I-4
tp25
g3
s(I3
I2
I0
tp26
g3
s(I3
I2
I-3
tp27
g3
s(I3
I2
I-4
tp28
g3
s(I3
I2
I-1
tp29
g3
s(I3
I1
I-4
tp30
g3
s(I3
I1
I0
tp31
g3
s(I0
I2
I-3
tp32
g3
s(I0
I0
I0
tp33
g3
s(I0
I2
I-4
tp34
g3
s(I2
I0
I-4
tp35
g3
s(I1
I1
I0
tp36
g3
s(I0
I2
I-2
tp37
g3
s(I0
I1
I-2
tp38
g3
s(I0
I1
I-4
tp39
g3
s(I2
I2
I0
tp40
g3
s(I3
I1
I-2
tp41
g3
s(I3
I0
I0
tp42
g3
s(I0
I1
I-3
tp43
g3
s(I3
I0
I-4
tp44
g3
s(I0
I1
I0
tp45
g3
s(I0
I1
I-1
tp46
g3
s(I2
I2
I-2
tp47
g3
s.